; Function Attrs: nounwind uwtable
define range(i32 -1, 1) i32 @ZPdr_ManSimpleMic(ptr noundef %0, i32 noundef %1, ptr noundef captures(none) %2) local_unnamed_addr #3 {
  %4 = load ptr, ptr %0, align 8, !tbaa !60
  %5 = getelementptr inbounds nuw i8, ptr %4, i64 80
  %6 = load i32, ptr %5, align 8, !tbaa !84
  %.not = icmp eq i32 %6, 0
  br i1 %.not, label %7, label %.loopexit

7:                                                ; preds = %3
  %8 = load ptr, ptr %2, align 8, !tbaa !85
  %9 = getelementptr inbounds nuw i8, ptr %0, i64 192
  %10 = load ptr, ptr %9, align 8, !tbaa !79
  %11 = getelementptr i8, ptr %10, i64 8
  %.val.i = load ptr, ptr %11, align 8, !tbaa !53
  %12 = getelementptr inbounds nuw i8, ptr %0, i64 128
  %13 = load ptr, ptr %12, align 8, !tbaa !80
  %14 = getelementptr inbounds nuw i8, ptr %8, i64 16
  %15 = load i32, ptr %14, align 8, !tbaa !51
  %16 = icmp sgt i32 %15, 0
  br i1 %16, label %.lr.ph.preheader.i, label %.loopexit

.lr.ph.preheader.i:                               ; preds = %7
  %wide.trip.count.i = zext nneg i32 %15 to i64
  br label %.lr.ph.i

.preheader.i:                                     ; preds = %.lr.ph.i
  %.not.i = icmp eq i32 %15, 1
  br i1 %.not.i, label %Pdr_ManSortByPriority.exit, label %.lr.ph44.i

.lr.ph44.i:                                       ; preds = %.preheader.i
  %17 = add nsw i32 %15, -1
  %18 = getelementptr inbounds nuw i8, ptr %8, i64 20
  %wide.trip.count57.i = zext nneg i32 %17 to i64
  br label %.lr.ph42.preheader.i

.lr.ph.i:                                         ; preds = %.lr.ph.i, %.lr.ph.preheader.i
  %indvars.iv.i = phi i64 [ 0, %.lr.ph.preheader.i ], [ %indvars.iv.next.i, %.lr.ph.i ]
  %19 = getelementptr inbounds nuw i32, ptr %13, i64 %indvars.iv.i
  %20 = trunc nuw nsw i64 %indvars.iv.i to i32
  store i32 %20, ptr %19, align 4, !tbaa !54
  %indvars.iv.next.i = add nuw nsw i64 %indvars.iv.i, 1
  %exitcond.not.i = icmp eq i64 %indvars.iv.next.i, %wide.trip.count.i
  br i1 %exitcond.not.i, label %.preheader.i, label %.lr.ph.i, !llvm.loop !81

.lr.ph42.preheader.i:                             ; preds = %._crit_edge.i, %.lr.ph44.i
  %indvars.iv54.i = phi i64 [ 0, %.lr.ph44.i ], [ %indvars.iv.next55.i, %._crit_edge.i ]
  %indvars.iv47.i = phi i64 [ 1, %.lr.ph44.i ], [ %indvars.iv.next48.i, %._crit_edge.i ]
  %21 = trunc nuw nsw i64 %indvars.iv54.i to i32
  br label %.lr.ph42.i

.lr.ph42.i:                                       ; preds = %.lr.ph42.i, %.lr.ph42.preheader.i
  %indvars.iv49.i = phi i64 [ %indvars.iv47.i, %.lr.ph42.preheader.i ], [ %indvars.iv.next50.i, %.lr.ph42.i ]
  %.03541.i = phi i32 [ %21, %.lr.ph42.preheader.i ], [ %spec.select.i, %.lr.ph42.i ]
  %22 = getelementptr inbounds nuw i32, ptr %13, i64 %indvars.iv49.i
  %23 = load i32, ptr %22, align 4, !tbaa !54
  %24 = sext i32 %23 to i64
  %25 = getelementptr inbounds [0 x i32], ptr %18, i64 0, i64 %24
  %26 = load i32, ptr %25, align 4, !tbaa !54
  %27 = ashr i32 %26, 1
  %28 = sext i32 %27 to i64
  %29 = getelementptr inbounds i32, ptr %.val.i, i64 %28
  %30 = load i32, ptr %29, align 4, !tbaa !54
  %31 = sext i32 %.03541.i to i64
  %32 = getelementptr inbounds i32, ptr %13, i64 %31
  %33 = load i32, ptr %32, align 4, !tbaa !54
  %34 = sext i32 %33 to i64
  %35 = getelementptr inbounds [0 x i32], ptr %18, i64 0, i64 %34
  %36 = load i32, ptr %35, align 4, !tbaa !54
  %37 = ashr i32 %36, 1
  %38 = sext i32 %37 to i64
  %39 = getelementptr inbounds i32, ptr %.val.i, i64 %38
  %40 = load i32, ptr %39, align 4, !tbaa !54
  %41 = icmp slt i32 %30, %40
  %42 = trunc nuw nsw i64 %indvars.iv49.i to i32
  %spec.select.i = select i1 %41, i32 %42, i32 %.03541.i
  %indvars.iv.next50.i = add nuw nsw i64 %indvars.iv49.i, 1
  %exitcond53.not.i = icmp eq i64 %indvars.iv.next50.i, %wide.trip.count.i
  br i1 %exitcond53.not.i, label %._crit_edge.i, label %.lr.ph42.i, !llvm.loop !82

._crit_edge.i:                                    ; preds = %.lr.ph42.i
  %indvars.iv.next55.i = add nuw nsw i64 %indvars.iv54.i, 1
  %43 = getelementptr inbounds nuw i32, ptr %13, i64 %indvars.iv54.i
  %44 = load i32, ptr %43, align 4, !tbaa !54
  %45 = sext i32 %spec.select.i to i64
  %46 = getelementptr inbounds i32, ptr %13, i64 %45
  %47 = load i32, ptr %46, align 4, !tbaa !54
  store i32 %47, ptr %43, align 4, !tbaa !54
  store i32 %44, ptr %46, align 4, !tbaa !54
  %indvars.iv.next48.i = add nuw nsw i64 %indvars.iv47.i, 1
  %exitcond58.not.i = icmp eq i64 %indvars.iv.next55.i, %wide.trip.count57.i
  br i1 %exitcond58.not.i, label %Pdr_ManSortByPriority.exit, label %.lr.ph42.preheader.i, !llvm.loop !83

Pdr_ManSortByPriority.exit:                       ; preds = %._crit_edge.i, %.preheader.i
  %.pr = load i32, ptr %14, align 8, !tbaa !51
  %48 = icmp sgt i32 %.pr, 0
  br i1 %48, label %.lr.ph, label %.loopexit

.lr.ph:                                           ; preds = %Pdr_ManSortByPriority.exit, %110
  %49 = phi ptr [ %111, %110 ], [ %8, %Pdr_ManSortByPriority.exit ]
  %.03062 = phi ptr [ %.1, %110 ], [ %13, %Pdr_ManSortByPriority.exit ]
  %.03161 = phi i32 [ %112, %110 ], [ 0, %Pdr_ManSortByPriority.exit ]
  %50 = sext i32 %.03161 to i64
  %51 = getelementptr inbounds i32, ptr %.03062, i64 %50
  %52 = load i32, ptr %51, align 4, !tbaa !54
  %53 = tail call i32 @Pdr_SetIsInit(ptr noundef nonnull %49, i32 noundef %52) #19
  %.not34 = icmp eq i32 %53, 0
  %.pre = load ptr, ptr %2, align 8, !tbaa !85
  br i1 %.not34, label %54, label %110

54:                                               ; preds = %.lr.ph
  %55 = getelementptr inbounds nuw i8, ptr %.pre, i64 20
  %56 = sext i32 %52 to i64
  %57 = getelementptr inbounds [0 x i32], ptr %55, i64 0, i64 %56
  %58 = load i32, ptr %57, align 4, !tbaa !54
  store i32 -1, ptr %57, align 4, !tbaa !54
  %59 = load ptr, ptr %0, align 8, !tbaa !60
  %60 = getelementptr inbounds nuw i8, ptr %59, i64 8
  %61 = load i32, ptr %60, align 8, !tbaa !87
  %62 = tail call i32 @Pdr_ManCheckCube(ptr noundef nonnull %0, i32 noundef %1, ptr noundef %.pre, ptr noundef null, i32 noundef %61, i32 noundef 0, i32 noundef 1) #19
  %63 = icmp eq i32 %62, -1
  br i1 %63, label %.loopexit, label %64

64:                                               ; preds = %54
  %65 = load ptr, ptr %2, align 8, !tbaa !85
  %66 = getelementptr inbounds nuw i8, ptr %65, i64 20
  %67 = getelementptr inbounds [0 x i32], ptr %66, i64 0, i64 %56
  store i32 %58, ptr %67, align 4, !tbaa !54
  %68 = icmp eq i32 %62, 0
  br i1 %68, label %110, label %69

69:                                               ; preds = %64
  %70 = tail call ptr @Pdr_SetCreateFrom(ptr noundef nonnull %65, i32 noundef %52) #19
  store ptr %70, ptr %2, align 8, !tbaa !85
  tail call void @Pdr_SetDeref(ptr noundef nonnull %65) #19
  %71 = load ptr, ptr %2, align 8, !tbaa !85
  %72 = load ptr, ptr %9, align 8, !tbaa !79
  %73 = getelementptr i8, ptr %72, i64 8
  %.val.i35 = load ptr, ptr %73, align 8, !tbaa !53
  %74 = load ptr, ptr %12, align 8, !tbaa !80
  %75 = getelementptr inbounds nuw i8, ptr %71, i64 16
  %76 = load i32, ptr %75, align 8, !tbaa !51
  %77 = icmp sgt i32 %76, 0
  br i1 %77, label %.lr.ph.preheader.i36, label %Pdr_ManSortByPriority.exit60

.lr.ph.preheader.i36:                             ; preds = %69
  %wide.trip.count.i37 = zext nneg i32 %76 to i64
  br label %.lr.ph.i38

.preheader.i42:                                   ; preds = %.lr.ph.i38
  %.not.i43 = icmp eq i32 %76, 1
  br i1 %.not.i43, label %Pdr_ManSortByPriority.exit60, label %.lr.ph44.i44

.lr.ph44.i44:                                     ; preds = %.preheader.i42
  %78 = add nsw i32 %76, -1
  %79 = getelementptr inbounds nuw i8, ptr %71, i64 20
  %wide.trip.count57.i45 = zext nneg i32 %78 to i64
  br label %.lr.ph42.preheader.i47

.lr.ph.i38:                                       ; preds = %.lr.ph.i38, %.lr.ph.preheader.i36
  %indvars.iv.i39 = phi i64 [ 0, %.lr.ph.preheader.i36 ], [ %indvars.iv.next.i40, %.lr.ph.i38 ]
  %80 = getelementptr inbounds nuw i32, ptr %74, i64 %indvars.iv.i39
  %81 = trunc nuw nsw i64 %indvars.iv.i39 to i32
  store i32 %81, ptr %80, align 4, !tbaa !54
  %indvars.iv.next.i40 = add nuw nsw i64 %indvars.iv.i39, 1
  %exitcond.not.i41 = icmp eq i64 %indvars.iv.next.i40, %wide.trip.count.i37
  br i1 %exitcond.not.i41, label %.preheader.i42, label %.lr.ph.i38, !llvm.loop !81

.lr.ph42.preheader.i47:                           ; preds = %._crit_edge.i57, %.lr.ph44.i44
  %indvars.iv54.i48 = phi i64 [ 0, %.lr.ph44.i44 ], [ %indvars.iv.next55.i50, %._crit_edge.i57 ]
  %indvars.iv47.i49 = phi i64 [ 1, %.lr.ph44.i44 ], [ %indvars.iv.next48.i58, %._crit_edge.i57 ]
  %82 = trunc nuw nsw i64 %indvars.iv54.i48 to i32
  br label %.lr.ph42.i51

.lr.ph42.i51:                                     ; preds = %.lr.ph42.i51, %.lr.ph42.preheader.i47
  %indvars.iv49.i52 = phi i64 [ %indvars.iv47.i49, %.lr.ph42.preheader.i47 ], [ %indvars.iv.next50.i55, %.lr.ph42.i51 ]
  %.03541.i53 = phi i32 [ %82, %.lr.ph42.preheader.i47 ], [ %spec.select.i54, %.lr.ph42.i51 ]
  %83 = getelementptr inbounds nuw i32, ptr %74, i64 %indvars.iv49.i52
  %84 = load i32, ptr %83, align 4, !tbaa !54
  %85 = sext i32 %84 to i64
  %86 = getelementptr inbounds [0 x i32], ptr %79, i64 0, i64 %85
  %87 = load i32, ptr %86, align 4, !tbaa !54
  %88 = ashr i32 %87, 1
  %89 = sext i32 %88 to i64
  %90 = getelementptr inbounds i32, ptr %.val.i35, i64 %89
  %91 = load i32, ptr %90, align 4, !tbaa !54
  %92 = sext i32 %.03541.i53 to i64
  %93 = getelementptr inbounds i32, ptr %74, i64 %92
  %94 = load i32, ptr %93, align 4, !tbaa !54
  %95 = sext i32 %94 to i64
  %96 = getelementptr inbounds [0 x i32], ptr %79, i64 0, i64 %95
  %97 = load i32, ptr %96, align 4, !tbaa !54
  %98 = ashr i32 %97, 1
  %99 = sext i32 %98 to i64
  %100 = getelementptr inbounds i32, ptr %.val.i35, i64 %99
  %101 = load i32, ptr %100, align 4, !tbaa !54
  %102 = icmp slt i32 %91, %101
  %103 = trunc nuw nsw i64 %indvars.iv49.i52 to i32
  %spec.select.i54 = select i1 %102, i32 %103, i32 %.03541.i53
  %indvars.iv.next50.i55 = add nuw nsw i64 %indvars.iv49.i52, 1
  %exitcond53.not.i56 = icmp eq i64 %indvars.iv.next50.i55, %wide.trip.count.i37
  br i1 %exitcond53.not.i56, label %._crit_edge.i57, label %.lr.ph42.i51, !llvm.loop !82

._crit_edge.i57:                                  ; preds = %.lr.ph42.i51
  %indvars.iv.next55.i50 = add nuw nsw i64 %indvars.iv54.i48, 1
  %104 = getelementptr inbounds nuw i32, ptr %74, i64 %indvars.iv54.i48
  %105 = load i32, ptr %104, align 4, !tbaa !54
  %106 = sext i32 %spec.select.i54 to i64
  %107 = getelementptr inbounds i32, ptr %74, i64 %106
  %108 = load i32, ptr %107, align 4, !tbaa !54
  store i32 %108, ptr %104, align 4, !tbaa !54
  store i32 %105, ptr %107, align 4, !tbaa !54
  %indvars.iv.next48.i58 = add nuw nsw i64 %indvars.iv47.i49, 1
  %exitcond58.not.i59 = icmp eq i64 %indvars.iv.next55.i50, %wide.trip.count57.i45
  br i1 %exitcond58.not.i59, label %Pdr_ManSortByPriority.exit60, label %.lr.ph42.preheader.i47, !llvm.loop !83

Pdr_ManSortByPriority.exit60:                     ; preds = %._crit_edge.i57, %69, %.preheader.i42
  %109 = add nsw i32 %.03161, -1
  br label %110

110:                                              ; preds = %64, %.lr.ph, %Pdr_ManSortByPriority.exit60
  %111 = phi ptr [ %.pre, %.lr.ph ], [ %65, %64 ], [ %71, %Pdr_ManSortByPriority.exit60 ]
  %.132 = phi i32 [ %.03161, %.lr.ph ], [ %.03161, %64 ], [ %109, %Pdr_ManSortByPriority.exit60 ]
  %.1 = phi ptr [ %.03062, %.lr.ph ], [ %.03062, %64 ], [ %74, %Pdr_ManSortByPriority.exit60 ]
  %112 = add nsw i32 %.132, 1
  %113 = getelementptr inbounds nuw i8, ptr %111, i64 16
  %114 = load i32, ptr %113, align 8, !tbaa !51
  %115 = icmp slt i32 %112, %114
  br i1 %115, label %.lr.ph, label %.loopexit, !llvm.loop !88

.loopexit:                                        ; preds = %54, %110, %7, %Pdr_ManSortByPriority.exit, %3
  %.0 = phi i32 [ 0, %3 ], [ 0, %Pdr_ManSortByPriority.exit ], [ 0, %7 ], [ -1, %54 ], [ 0, %110 ]
  ret i32 %.0
}